(itelebot.types
Message
p0
(dp1
S'forward_from_chat'
p2
NsS'new_chat_photo'
p3
NsS'invoice'
p4
NsS'text'
p5
V/start
p6
sS'sticker'
p7
NsS'successful_payment'
p8
NsS'caption_entities'
p9
NsS'delete_chat_photo'
p10
NsS'migrate_from_chat_id'
p11
NsS'new_chat_members'
p12
NsS'video'
p13
NsS'left_chat_member'
p14
NsS'chat'
p15
(itelebot.types
Chat
p16
(dp17
S'username'
p18
Vsathe_aditya
p19
sS'first_name'
p20
VAditya
p21
sS'last_name'
p22
VSathe
p23
sS'description'
p24
NsS'title'
p25
NsS'photo'
p26
NsS'pinned_message'
p27
NsS'sticker_set_name'
p28
NsS'all_members_are_administrators'
p29
NsS'invite_link'
p30
NsS'type'
p31
Vprivate
p32
sS'id'
p33
I165065883
sS'can_set_sticker_set'
p34
NsbsS'group_chat_created'
p35
NsS'migrate_to_chat_id'
p36
NsS'forward_date'
p37
NsS'entities'
p38
(lp39
(itelebot.types
MessageEntity
p40
(dp41
S'url'
p42
NsS'length'
p43
I6
sg31
Vbot_command
p44
sS'user'
p45
NsS'offset'
p46
I0
sbasS'location'
p47
Nsg26
NsS'author_signature'
p48
NsS'document'
p49
NsS'forward_from'
p50
NsS'supergroup_chat_created'
p51
NsS'edit_date'
p52
Nsg27
NsS'content_type'
p53
g5
sS'from_user'
p54
(itelebot.types
User
p55
(dp56
g18
Vsathe_aditya
p57
sg20
VAditya
p58
sg22
VSathe
p59
sS'is_bot'
p60
I00
sS'language_code'
p61
Ven-IN
p62
sg33
I165065883
sbsS'date'
p63
I1516372545
sS'new_chat_member'
p64
NsS'audio'
p65
NsS'reply_to_message'
p66
NsS'venue'
p67
NsS'message_id'
p68
I1239
sS'caption'
p69
NsS'contact'
p70
NsS'channel_chat_created'
p71
NsS'video_note'
p72
NsS'voice'
p73
NsS'new_chat_title'
p74
Nsb.